; Function Attrs: mustprogress uwtable
define void @_ZN6icu_7710ICUService5resetEv(ptr noundef nonnull align 8 dereferenceable(120) %0) unnamed_addr #0 align 2 personality ptr @__gxx_personality_v0 {
  tail call void @umtx_lock_77(ptr noundef nonnull @_ZN6icu_77L4lockE)
  %2 = load ptr, ptr %0, align 8, !tbaa !3
  %3 = getelementptr inbounds nuw i8, ptr %2, i64 128
  %4 = load ptr, ptr %3, align 8
  invoke void %4(ptr noundef nonnull align 8 dereferenceable(120) %0)
          to label %5 unwind label %16

5:                                                ; preds = %1
  %6 = load ptr, ptr %0, align 8, !tbaa !3
  %7 = getelementptr inbounds nuw i8, ptr %6, i64 144
  %8 = load ptr, ptr %7, align 8
  invoke void %8(ptr noundef nonnull align 8 dereferenceable(120) %0)
          to label %9 unwind label %16

9:                                                ; preds = %5
  invoke void @umtx_unlock_77(ptr noundef nonnull @_ZN6icu_77L4lockE)
          to label %_ZN6icu_775MutexD2Ev.exit unwind label %10

10:                                               ; preds = %9
  %11 = landingpad { ptr, i32 }
          catch ptr null
  %12 = extractvalue { ptr, i32 } %11, 0
  tail call void @__clang_call_terminate(ptr %12) #18
  unreachable

_ZN6icu_775MutexD2Ev.exit:                        ; preds = %9
  %13 = load ptr, ptr %0, align 8, !tbaa !3
  %14 = getelementptr inbounds nuw i8, ptr %13, i64 32
  %15 = load ptr, ptr %14, align 8
  tail call void %15(ptr noundef nonnull align 8 dereferenceable(16) %0)
  ret void

16:                                               ; preds = %5, %1
  %17 = landingpad { ptr, i32 }
          cleanup
  invoke void @umtx_unlock_77(ptr noundef nonnull @_ZN6icu_77L4lockE)
          to label %_ZN6icu_775MutexD2Ev.exit2 unwind label %18

18:                                               ; preds = %16
  %19 = landingpad { ptr, i32 }
          catch ptr null
  %20 = extractvalue { ptr, i32 } %19, 0
  tail call void @__clang_call_terminate(ptr %20) #18
  unreachable

_ZN6icu_775MutexD2Ev.exit2:                       ; preds = %16
  resume { ptr, i32 } %17
}